; ModuleID = 'bench/abseil-cpp/original/seed_gen_exception.cc.ll'
source_filename = "bench/abseil-cpp/original/seed_gen_exception.cc.ll"
target datalayout = "e-m:e-p270:32:32-p271:32:32-p272:64:64-i64:64-i128:128-f80:128-n8:16:32:64-S128"
target triple = "x86_64-unknown-linux-gnu"

%"class.std::ios_base::Init" = type { i8 }

@_ZStL8__ioinit = internal global %"class.std::ios_base::Init" zeroinitializer, align 1
@__dso_handle = external hidden global i8
@_ZN4abslL17kExceptionMessageE = internal constant [42 x i8] c"Failed generating seed-material for URBG.\00", align 16
@_ZTVN10__cxxabiv120__si_class_type_infoE = external global [0 x ptr]
@_ZTSN4absl16SeedGenExceptionE = dso_local constant [26 x i8] c"N4absl16SeedGenExceptionE\00", align 1
@_ZTISt9exception = external constant ptr
@_ZTIN4absl16SeedGenExceptionE = dso_local constant { ptr, ptr, ptr } { ptr getelementptr inbounds (ptr, ptr @_ZTVN10__cxxabiv120__si_class_type_infoE, i64 2), ptr @_ZTSN4absl16SeedGenExceptionE, ptr @_ZTISt9exception }, align 8
@_ZTVN4absl16SeedGenExceptionE = dso_local unnamed_addr constant { [5 x ptr] } { [5 x ptr] [ptr null, ptr @_ZTIN4absl16SeedGenExceptionE, ptr @_ZN4absl16SeedGenExceptionD2Ev, ptr @_ZN4absl16SeedGenExceptionD0Ev, ptr @_ZNK4absl16SeedGenException4whatEv] }, align 8
@llvm.global_ctors = appending global [1 x { i32, ptr, ptr }] [{ i32, ptr, ptr } { i32 65535, ptr @_GLOBAL__sub_I_seed_gen_exception.cc, ptr null }]

@_ZN4absl16SeedGenExceptionD1Ev = dso_local unnamed_addr alias void (ptr), ptr @_ZN4absl16SeedGenExceptionD2Ev

declare void @_ZNSt8ios_base4InitC1Ev(ptr noundef nonnull align 1 dereferenceable(1)) unnamed_addr #0

; Function Attrs: nounwind
declare void @_ZNSt8ios_base4InitD1Ev(ptr noundef nonnull align 1 dereferenceable(1)) unnamed_addr #1

; Function Attrs: nofree nounwind
declare i32 @__cxa_atexit(ptr, ptr, ptr) local_unnamed_addr #2

; Function Attrs: mustprogress nounwind uwtable
define dso_local void @_ZN4absl16SeedGenExceptionD2Ev(ptr noundef nonnull align 8 dereferenceable(8) %this) unnamed_addr #3 align 2 {
entry:
  tail call void @_ZNSt9exceptionD2Ev(ptr noundef nonnull align 8 dereferenceable(8) %this) #8
  ret void
}

; Function Attrs: nounwind
declare void @_ZNSt9exceptionD2Ev(ptr noundef nonnull align 8 dereferenceable(8)) unnamed_addr #1

; Function Attrs: mustprogress nounwind uwtable
define dso_local void @_ZN4absl16SeedGenExceptionD0Ev(ptr noundef nonnull align 8 dereferenceable(8) %this) unnamed_addr #3 align 2 {
entry:
  tail call void @_ZNSt9exceptionD2Ev(ptr noundef nonnull align 8 dereferenceable(8) %this) #8
  tail call void @_ZdlPv(ptr noundef nonnull %this) #9
  ret void
}

; Function Attrs: nobuiltin nounwind
declare void @_ZdlPv(ptr noundef) local_unnamed_addr #4

; Function Attrs: mustprogress nofree norecurse nosync nounwind willreturn memory(none) uwtable
define dso_local noundef nonnull ptr @_ZNK4absl16SeedGenException4whatEv(ptr nocapture nonnull readnone align 8 %this) unnamed_addr #5 align 2 {
entry:
  ret ptr @_ZN4abslL17kExceptionMessageE
}

; Function Attrs: mustprogress noreturn uwtable
define dso_local void @_ZN4absl15random_internal21ThrowSeedGenExceptionEv() local_unnamed_addr #6 {
entry:
  %exception = tail call ptr @__cxa_allocate_exception(i64 8) #8
  store ptr getelementptr inbounds ({ [5 x ptr] }, ptr @_ZTVN4absl16SeedGenExceptionE, i64 0, i32 0, i64 2), ptr %exception, align 8
  tail call void @__cxa_throw(ptr nonnull %exception, ptr nonnull @_ZTIN4absl16SeedGenExceptionE, ptr nonnull @_ZN4absl16SeedGenExceptionD2Ev) #10
  unreachable
}

declare ptr @__cxa_allocate_exception(i64) local_unnamed_addr

declare void @__cxa_throw(ptr, ptr, ptr) local_unnamed_addr

; Function Attrs: uwtable
define internal void @_GLOBAL__sub_I_seed_gen_exception.cc() #7 section ".text.startup" {
entry:
  tail call void @_ZNSt8ios_base4InitC1Ev(ptr noundef nonnull align 1 dereferenceable(1) @_ZStL8__ioinit)
  %0 = tail call i32 @__cxa_atexit(ptr nonnull @_ZNSt8ios_base4InitD1Ev, ptr nonnull @_ZStL8__ioinit, ptr nonnull @__dso_handle) #8
  ret void
}


!llvm.module.flags = !{!0, !1, !2, !3, !4}

!0 = !{i32 1, !"wchar_size", i32 4}
!1 = !{i32 8, !"PIC Level", i32 2}
!2 = !{i32 7, !"PIE Level", i32 2}
!3 = !{i32 7, !"uwtable", i32 2}
!4 = !{i32 7, !"frame-pointer", i32 2}
